; Function Attrs: mustprogress nofree norecurse nosync nounwind willreturn memory(argmem: read) uwtable
define ptr @u_strrchr_77(ptr noundef %0, i16 noundef zeroext %1) local_unnamed_addr #2 {
  %3 = and i16 %1, -2048
  %4 = icmp eq i16 %3, -10240
  br i1 %4, label %5, label %.preheader

5:                                                ; preds = %2
  %6 = icmp eq ptr %0, null
  br i1 %6, label %u_strFindLast_77.exit, label %.preheader74.i

.preheader74.i:                                   ; preds = %5, %.preheader74.i
  %.0.i67.i = phi ptr [ %8, %.preheader74.i ], [ %0, %5 ]
  %7 = load i16, ptr %.0.i67.i, align 2, !tbaa !3
  %.not.i68.i = icmp eq i16 %7, 0
  %8 = getelementptr inbounds nuw i8, ptr %.0.i67.i, i64 2
  br i1 %.not.i68.i, label %u_strlen_77.exit69.i, label %.preheader74.i, !llvm.loop !11

u_strlen_77.exit69.i:                             ; preds = %.preheader74.i
  %9 = ptrtoint ptr %.0.i67.i to i64
  %10 = ptrtoint ptr %0 to i64
  %11 = sub i64 %9, %10
  %12 = lshr exact i64 %11, 1
  %13 = trunc i64 %12 to i32
  %.not.not.i = icmp slt i32 %13, 1
  br i1 %.not.not.i, label %u_strFindLast_77.exit, label %14

14:                                               ; preds = %u_strlen_77.exit69.i
  %15 = and i64 %12, 2147483647
  %16 = getelementptr inbounds nuw i16, ptr %0, i64 %15
  %17 = and i16 %1, -9216
  switch i16 %17, label %.lr.ph.i.us.us [
    i16 -10240, label %.lr.ph.i.us16
    i16 -9216, label %.lr.ph.i.us
  ]

.lr.ph.i.us.us:                                   ; preds = %14, %_ZL19isMatchAtCPBoundaryPKDsS0_S0_S0_.exit.thread.i.us.us
  %.05282.i.us.us = phi ptr [ %18, %_ZL19isMatchAtCPBoundaryPKDsS0_S0_S0_.exit.thread.i.us.us ], [ %16, %14 ]
  %18 = getelementptr inbounds i8, ptr %.05282.i.us.us, i64 -2
  %19 = load i16, ptr %18, align 2, !tbaa !3
  %20 = icmp eq i16 %19, %1
  br i1 %20, label %u_strFindLast_77.exit, label %_ZL19isMatchAtCPBoundaryPKDsS0_S0_S0_.exit.thread.i.us.us

_ZL19isMatchAtCPBoundaryPKDsS0_S0_S0_.exit.thread.i.us.us: ; preds = %.lr.ph.i.us.us
  %.not.i.us.us = icmp eq ptr %0, %18
  br i1 %.not.i.us.us, label %u_strFindLast_77.exit, label %.lr.ph.i.us.us, !llvm.loop !22

.lr.ph.i.us:                                      ; preds = %14, %_ZL19isMatchAtCPBoundaryPKDsS0_S0_S0_.exit.thread.i.us
  %.05282.i.us = phi ptr [ %21, %_ZL19isMatchAtCPBoundaryPKDsS0_S0_S0_.exit.thread.i.us ], [ %16, %14 ]
  %21 = getelementptr inbounds i8, ptr %.05282.i.us, i64 -2
  %22 = load i16, ptr %21, align 2, !tbaa !3
  %23 = icmp eq i16 %22, %1
  br i1 %23, label %.preheader.i.preheader.us, label %_ZL19isMatchAtCPBoundaryPKDsS0_S0_S0_.exit.thread.i.us

24:                                               ; preds = %.preheader.i.preheader.us
  %25 = getelementptr inbounds i8, ptr %.05282.i.us, i64 -4
  %26 = load i16, ptr %25, align 2, !tbaa !3
  %27 = and i16 %26, -1024
  %28 = icmp eq i16 %27, -10240
  br i1 %28, label %_ZL19isMatchAtCPBoundaryPKDsS0_S0_S0_.exit.thread.i.us, label %u_strFindLast_77.exit

_ZL19isMatchAtCPBoundaryPKDsS0_S0_S0_.exit.thread.i.us: ; preds = %24, %.lr.ph.i.us
  %.not.i.us = icmp eq ptr %0, %21
  br i1 %.not.i.us, label %u_strFindLast_77.exit, label %.lr.ph.i.us, !llvm.loop !22

.preheader.i.preheader.us:                        ; preds = %.lr.ph.i.us
  %.not.i70.i.us = icmp eq ptr %0, %21
  br i1 %.not.i70.i.us, label %u_strFindLast_77.exit, label %24

.lr.ph.i.us16:                                    ; preds = %14, %_ZL19isMatchAtCPBoundaryPKDsS0_S0_S0_.exit.thread.i.us18
  %.05282.i.us17 = phi ptr [ %29, %_ZL19isMatchAtCPBoundaryPKDsS0_S0_S0_.exit.thread.i.us18 ], [ %16, %14 ]
  %29 = getelementptr inbounds i8, ptr %.05282.i.us17, i64 -2
  %30 = load i16, ptr %29, align 2, !tbaa !3
  %31 = icmp eq i16 %30, %1
  br i1 %31, label %.preheader.i.preheader.us20, label %_ZL19isMatchAtCPBoundaryPKDsS0_S0_S0_.exit.thread.i.us18

32:                                               ; preds = %.preheader.i.preheader.us20
  %33 = load i16, ptr %.05282.i.us17, align 2, !tbaa !3
  %34 = and i16 %33, -1024
  %35 = icmp eq i16 %34, -9216
  br i1 %35, label %_ZL19isMatchAtCPBoundaryPKDsS0_S0_S0_.exit.thread.i.us18, label %u_strFindLast_77.exit

_ZL19isMatchAtCPBoundaryPKDsS0_S0_S0_.exit.thread.i.us18: ; preds = %32, %.lr.ph.i.us16
  %.not.i.us19 = icmp eq ptr %0, %29
  br i1 %.not.i.us19, label %u_strFindLast_77.exit, label %.lr.ph.i.us16, !llvm.loop !22

.preheader.i.preheader.us20:                      ; preds = %.lr.ph.i.us16
  %.not10.i.i.us = icmp eq ptr %.05282.i.us17, %16
  br i1 %.not10.i.i.us, label %u_strFindLast_77.exit, label %32

.preheader:                                       ; preds = %2, %.preheader
  %.07 = phi ptr [ %39, %.preheader ], [ %0, %2 ]
  %.06 = phi ptr [ %spec.select, %.preheader ], [ null, %2 ]
  %36 = load i16, ptr %.07, align 2, !tbaa !3
  %37 = icmp eq i16 %36, %1
  %spec.select = select i1 %37, ptr %.07, ptr %.06
  %38 = icmp eq i16 %36, 0
  %39 = getelementptr inbounds nuw i8, ptr %.07, i64 2
  br i1 %38, label %u_strFindLast_77.exit, label %.preheader, !llvm.loop !19

u_strFindLast_77.exit:                            ; preds = %.preheader, %_ZL19isMatchAtCPBoundaryPKDsS0_S0_S0_.exit.thread.i.us, %.preheader.i.preheader.us, %24, %.preheader.i.preheader.us20, %32, %_ZL19isMatchAtCPBoundaryPKDsS0_S0_S0_.exit.thread.i.us18, %_ZL19isMatchAtCPBoundaryPKDsS0_S0_S0_.exit.thread.i.us.us, %.lr.ph.i.us.us, %u_strlen_77.exit69.i, %5
  %.0 = phi ptr [ null, %5 ], [ null, %u_strlen_77.exit69.i ], [ %18, %.lr.ph.i.us.us ], [ null, %_ZL19isMatchAtCPBoundaryPKDsS0_S0_S0_.exit.thread.i.us.us ], [ %29, %32 ], [ %29, %.preheader.i.preheader.us20 ], [ null, %_ZL19isMatchAtCPBoundaryPKDsS0_S0_S0_.exit.thread.i.us18 ], [ %0, %.preheader.i.preheader.us ], [ %21, %24 ], [ null, %_ZL19isMatchAtCPBoundaryPKDsS0_S0_S0_.exit.thread.i.us ], [ %spec.select, %.preheader ]
  ret ptr %.0
}